; Function Attrs: mustprogress uwtable
define internal void @"_ZNSt17_Function_handlerIFvvEZN3gmx17TrajectoryElement12scheduleTaskEldRKSt8functionIFvS3_IS0_EEEE3$_0E9_M_invokeERKSt9_Any_data"(ptr noundef nonnull readonly align 8 captures(none) dereferenceable(16) %0) #0 align 2 {
  %.val = load ptr, ptr %0, align 8, !tbaa !34
  %2 = load ptr, ptr %.val, align 8, !tbaa !86
  %3 = getelementptr inbounds nuw i8, ptr %.val, i64 8
  %4 = load i64, ptr %3, align 8, !tbaa !88
  %5 = getelementptr inbounds nuw i8, ptr %.val, i64 16
  %6 = load double, ptr %5, align 8, !tbaa !89
  %7 = getelementptr inbounds nuw i8, ptr %.val, i64 24
  %8 = load i8, ptr %7, align 8, !tbaa !90, !range !48, !noundef !49
  %9 = trunc nuw i8 %8 to i1
  %10 = getelementptr inbounds nuw i8, ptr %.val, i64 25
  %11 = load i8, ptr %10, align 1, !tbaa !91, !range !48, !noundef !49
  %12 = trunc nuw i8 %11 to i1
  %13 = getelementptr inbounds nuw i8, ptr %.val, i64 26
  %14 = load i8, ptr %13, align 2, !tbaa !92, !range !48, !noundef !49
  %15 = trunc nuw i8 %14 to i1
  tail call void @_ZN3gmx17TrajectoryElement5writeEldbbb(ptr noundef nonnull align 8 dereferenceable(128) %2, i64 noundef %4, double noundef %6, i1 noundef zeroext %9, i1 noundef zeroext %12, i1 noundef zeroext %15)
  ret void
}